target datalayout = "e-m:e-p270:32:32-p271:32:32-p272:64:64-i64:64-i128:128-f80:128-n8:16:32:64-S128"
target triple = "x86_64-pc-linux-gnu"

%struct.tsd_s = type { i8, i8, i8, i64, i64, i64, i64, i64, i64, i64, i64, i64, i64, i64, i64, ptr, i64, i64, i64, ptr, ptr, %struct.ticker_geom_s, i8, %struct.tsd_binshards_s, %struct.tsd_link_t, i8, %struct.peak_s, %struct.activity_callback_thunk_s, %struct.tcache_slow_s, %struct.rtree_ctx_s, %struct.atomic_u8_t, i64, i64, i64, i64, %struct.tcache_s, %struct.witness_tsd_s }
%struct.ticker_geom_s = type { i32, i32 }
%struct.tsd_binshards_s = type { [36 x i8] }
%struct.tsd_link_t = type { ptr, ptr }
%struct.peak_s = type { i64, i64 }
%struct.activity_callback_thunk_s = type { ptr, ptr }
%struct.tcache_slow_s = type { %struct.anon.1, %struct.cache_bin_array_descriptor_s, ptr, i32, i32, [36 x i8], [36 x i8], [36 x i8], ptr, ptr }
%struct.anon.1 = type { ptr, ptr }
%struct.cache_bin_array_descriptor_s = type { %struct.anon.2, ptr }
%struct.anon.2 = type { ptr, ptr }
%struct.rtree_ctx_s = type { [16 x %struct.rtree_ctx_cache_elm_s], [8 x %struct.rtree_ctx_cache_elm_s] }
%struct.rtree_ctx_cache_elm_s = type { i64, ptr }
%struct.atomic_u8_t = type { i8 }
%struct.tcache_s = type { ptr, [73 x %struct.cache_bin_s] }
%struct.cache_bin_s = type { ptr, %struct.cache_bin_stats_s, i16, i16, i16, %struct.cache_bin_info_s }
%struct.cache_bin_stats_s = type { i64 }
%struct.cache_bin_info_s = type { i16 }
%struct.witness_tsd_s = type { %struct.witness_list_t, i8 }
%struct.witness_list_t = type { ptr }
%struct.tsdn_s = type { %struct.tsd_s }

@hook_reentrantp.in_hook_global = internal global i8 1, align 1
@duckdb_je_tsd_booted = external global i8, align 1
@duckdb_je_tsd_tls = external thread_local global %struct.tsd_s, align 8

; Function Attrs: alwaysinline nounwind uwtable
define internal ptr @tsd_in_hookp_get_unsafe(ptr noundef %0) #4 {
  %2 = alloca ptr, align 8
  store ptr %0, ptr %2, align 8, !tbaa !39
  %3 = load ptr, ptr %2, align 8, !tbaa !39
  %4 = getelementptr inbounds nuw %struct.tsd_s, ptr %3, i32 0, i32 25
  ret ptr %4
}

; Function Attrs: alwaysinline nounwind uwtable
define internal void @tsd_assert_fast(ptr noundef %0) #4 {
  %2 = alloca ptr, align 8
  store ptr %0, ptr %2, align 8, !tbaa !39
  br label %3

3:                                                ; preds = %1
  br label %4

4:                                                ; preds = %3
  ret void
}

; Function Attrs: alwaysinline nounwind uwtable
define internal zeroext i8 @tsd_state_get(ptr noundef %0) #4 {
  %2 = alloca ptr, align 8
  store ptr %0, ptr %2, align 8, !tbaa !39
  %3 = load ptr, ptr %2, align 8, !tbaa !39
  %4 = getelementptr inbounds nuw %struct.tsd_s, ptr %3, i32 0, i32 30
  %5 = load i8, ptr %4, align 8, !tbaa !47
  ret i8 %5
}

; Function Attrs: alwaysinline nounwind uwtable
define internal zeroext i1 @tsd_get_allocates() #4 {
  ret i1 false
}

; Function Attrs: alwaysinline nounwind uwtable
define internal ptr @tsd_get(i1 noundef zeroext %0) #4 {
  %2 = alloca i8, align 1
  %3 = zext i1 %0 to i8
  store i8 %3, ptr %2, align 1, !tbaa !15
  %4 = call align 8 ptr @llvm.threadlocal.address.p0(ptr align 8 @duckdb_je_tsd_tls)
  ret ptr %4
}

; Function Attrs: alwaysinline nounwind uwtable
define internal ptr @tsd_in_hookp_get(ptr noundef %0) #4 {
  %2 = alloca ptr, align 8
  %3 = alloca i8, align 1
  store ptr %0, ptr %2, align 8, !tbaa !39
  call void @llvm.lifetime.start.p0(i64 1, ptr %3) #9
  %4 = load ptr, ptr %2, align 8, !tbaa !39
  %5 = call zeroext i8 @tsd_state_get(ptr noundef %4)
  store i8 %5, ptr %3, align 1, !tbaa !47
  br label %6

6:                                                ; preds = %1
  br label %7

7:                                                ; preds = %6
  br label %8

8:                                                ; preds = %7
  %9 = load ptr, ptr %2, align 8, !tbaa !39
  %10 = call ptr @tsd_in_hookp_get_unsafe(ptr noundef %9)
  call void @llvm.lifetime.end.p0(i64 1, ptr %3) #9
  ret ptr %10
}

; Function Attrs: alwaysinline nounwind uwtable
define internal ptr @tsdn_tsd(ptr noundef %0) #4 {
  %2 = alloca ptr, align 8
  store ptr %0, ptr %2, align 8, !tbaa !3
  br label %3

3:                                                ; preds = %1
  br label %4

4:                                                ; preds = %3
  %5 = load ptr, ptr %2, align 8, !tbaa !3
  %6 = getelementptr inbounds nuw %struct.tsdn_s, ptr %5, i32 0, i32 0
  ret ptr %6
}

; Function Attrs: alwaysinline nounwind uwtable
define internal zeroext i1 @tsdn_null(ptr noundef %0) #4 {
  %2 = alloca ptr, align 8
  store ptr %0, ptr %2, align 8, !tbaa !3
  %3 = load ptr, ptr %2, align 8, !tbaa !3
  %4 = icmp eq ptr %3, null
  ret i1 %4
}

; Function Attrs: alwaysinline nounwind uwtable
define internal ptr @tsd_tsdn(ptr noundef %0) #4 {
  %2 = alloca ptr, align 8
  store ptr %0, ptr %2, align 8, !tbaa !39
  %3 = load ptr, ptr %2, align 8, !tbaa !39
  ret ptr %3
}

; Function Attrs: alwaysinline nounwind uwtable
define internal ptr @tsd_fetch_impl(i1 noundef zeroext %0, i1 noundef zeroext %1) #4 {
  %3 = alloca ptr, align 8
  %4 = alloca i8, align 1
  %5 = alloca i8, align 1
  %6 = alloca ptr, align 8
  %7 = alloca i32, align 4
  %8 = zext i1 %0 to i8
  store i8 %8, ptr %4, align 1, !tbaa !15
  %9 = zext i1 %1 to i8
  store i8 %9, ptr %5, align 1, !tbaa !15
  call void @llvm.lifetime.start.p0(i64 8, ptr %6) #9
  %10 = load i8, ptr %4, align 1, !tbaa !15, !range !20, !noundef !21
  %11 = trunc i8 %10 to i1
  %12 = call ptr @tsd_get(i1 noundef zeroext %11)
  store ptr %12, ptr %6, align 8, !tbaa !39
  %13 = load i8, ptr %4, align 1, !tbaa !15, !range !20, !noundef !21
  %14 = trunc i8 %13 to i1
  br i1 %14, label %21, label %15

15:                                               ; preds = %2
  %16 = call zeroext i1 @tsd_get_allocates()
  br i1 %16, label %17, label %21

17:                                               ; preds = %15
  %18 = load ptr, ptr %6, align 8, !tbaa !39
  %19 = icmp eq ptr %18, null
  br i1 %19, label %20, label %21

20:                                               ; preds = %17
  store ptr null, ptr %3, align 8
  store i32 1, ptr %7, align 4
  br label %46

21:                                               ; preds = %17, %15, %2
  br label %22

22:                                               ; preds = %21
  br label %23

23:                                               ; preds = %22
  br label %24

24:                                               ; preds = %23
  %25 = load ptr, ptr %6, align 8, !tbaa !39
  %26 = call zeroext i8 @tsd_state_get(ptr noundef %25)
  %27 = zext i8 %26 to i32
  %28 = icmp ne i32 %27, 0
  %29 = xor i1 %28, true
  %30 = xor i1 %29, true
  %31 = zext i1 %30 to i32
  %32 = sext i32 %31 to i64
  %33 = call i64 @llvm.expect.i64(i64 %32, i64 0)
  %34 = icmp ne i64 %33, 0
  br i1 %34, label %35, label %40

35:                                               ; preds = %24
  %36 = load ptr, ptr %6, align 8, !tbaa !39
  %37 = load i8, ptr %5, align 1, !tbaa !15, !range !20, !noundef !21
  %38 = trunc i8 %37 to i1
  %39 = call ptr @duckdb_je_tsd_fetch_slow(ptr noundef %36, i1 noundef zeroext %38)
  store ptr %39, ptr %3, align 8
  store i32 1, ptr %7, align 4
  br label %46

40:                                               ; preds = %24
  br label %41

41:                                               ; preds = %40
  br label %42

42:                                               ; preds = %41
  br label %43

43:                                               ; preds = %42
  %44 = load ptr, ptr %6, align 8, !tbaa !39
  call void @tsd_assert_fast(ptr noundef %44)
  %45 = load ptr, ptr %6, align 8, !tbaa !39
  store ptr %45, ptr %3, align 8
  store i32 1, ptr %7, align 4
  br label %46

46:                                               ; preds = %43, %35, %20
  call void @llvm.lifetime.end.p0(i64 8, ptr %6) #9
  %47 = load ptr, ptr %3, align 8
  ret ptr %47
}

; Function Attrs: alwaysinline nounwind uwtable
define internal zeroext i1 @tsd_booted_get() #4 {
  %1 = load i8, ptr @duckdb_je_tsd_booted, align 1, !tbaa !15, !range !20, !noundef !21
  %2 = trunc i8 %1 to i1
  ret i1 %2
}

; Function Attrs: alwaysinline nounwind uwtable
define internal ptr @tsdn_in_hookp_get(ptr noundef %0) #4 {
  %2 = alloca ptr, align 8
  %3 = alloca ptr, align 8
  %4 = alloca ptr, align 8
  store ptr %0, ptr %3, align 8, !tbaa !3
  %5 = load ptr, ptr %3, align 8, !tbaa !3
  %6 = call zeroext i1 @tsdn_null(ptr noundef %5)
  br i1 %6, label %7, label %8

7:                                                ; preds = %1
  store ptr null, ptr %2, align 8
  br label %13

8:                                                ; preds = %1
  call void @llvm.lifetime.start.p0(i64 8, ptr %4) #9
  %9 = load ptr, ptr %3, align 8, !tbaa !3
  %10 = call ptr @tsdn_tsd(ptr noundef %9)
  store ptr %10, ptr %4, align 8, !tbaa !39
  %11 = load ptr, ptr %4, align 8, !tbaa !39
  %12 = call ptr @tsd_in_hookp_get(ptr noundef %11)
  store ptr %12, ptr %2, align 8
  call void @llvm.lifetime.end.p0(i64 8, ptr %4) #9
  br label %13

13:                                               ; preds = %8, %7
  %14 = load ptr, ptr %2, align 8
  ret ptr %14
}

; Function Attrs: alwaysinline nounwind uwtable
define internal ptr @tsdn_fetch() #4 {
  %1 = alloca ptr, align 8
  %2 = call zeroext i1 @tsd_booted_get()
  br i1 %2, label %4, label %3

3:                                                ; preds = %0
  store ptr null, ptr %1, align 8
  br label %7

4:                                                ; preds = %0
  %5 = call ptr @tsd_fetch_impl(i1 noundef zeroext false, i1 noundef zeroext false)
  %6 = call ptr @tsd_tsdn(ptr noundef %5)
  store ptr %6, ptr %1, align 8
  br label %7

7:                                                ; preds = %4, %3
  %8 = load ptr, ptr %1, align 8
  ret ptr %8
}

; Function Attrs: nounwind uwtable
define internal ptr @hook_reentrantp() #0 {
  %1 = alloca ptr, align 8
  %2 = alloca ptr, align 8
  %3 = alloca ptr, align 8
  %4 = alloca i32, align 4
  call void @llvm.lifetime.start.p0(i64 8, ptr %2) #9
  %5 = call ptr @tsdn_fetch()
  store ptr %5, ptr %2, align 8, !tbaa !3
  call void @llvm.lifetime.start.p0(i64 8, ptr %3) #9
  %6 = load ptr, ptr %2, align 8, !tbaa !3
  %7 = call ptr @tsdn_in_hookp_get(ptr noundef %6)
  store ptr %7, ptr %3, align 8, !tbaa !27
  %8 = load ptr, ptr %3, align 8, !tbaa !27
  %9 = icmp ne ptr %8, null
  br i1 %9, label %10, label %12

10:                                               ; preds = %0
  %11 = load ptr, ptr %3, align 8, !tbaa !27
  store ptr %11, ptr %1, align 8
  store i32 1, ptr %4, align 4
  br label %13

12:                                               ; preds = %0
  store ptr @hook_reentrantp.in_hook_global, ptr %1, align 8
  store i32 1, ptr %4, align 4
  br label %13

13:                                               ; preds = %12, %10
  call void @llvm.lifetime.end.p0(i64 8, ptr %3) #9
  call void @llvm.lifetime.end.p0(i64 8, ptr %2) #9
  %14 = load ptr, ptr %1, align 8
  ret ptr %14
}